target datalayout = "e-m:e-p270:32:32-p271:32:32-p272:64:64-i64:64-i128:128-f80:128-n8:16:32:64-S128"
target triple = "x86_64-pc-linux-gnu"

%struct.RangeBound = type { i64, i8, i8, i8 }
%struct.FunctionCallInfoBaseData = type { ptr, ptr, ptr, i32, i8, i16, [0 x %struct.NullableDatum] }
%struct.NullableDatum = type { i64, i8 }
%struct.FmgrInfo = type { ptr, i32, i16, i8, i8, i8, ptr, ptr, ptr }
%struct.TypeCacheEntry = type { i32, i32, i16, i8, i8, i8, i8, i32, i32, i32, i32, i32, i32, i32, i32, i32, i32, i32, i32, i32, i32, %struct.FmgrInfo, %struct.FmgrInfo, %struct.FmgrInfo, %struct.FmgrInfo, ptr, i64, ptr, i32, i32, %struct.FmgrInfo, %struct.FmgrInfo, %struct.FmgrInfo, ptr, i32, i32, ptr, i32, ptr, ptr }
%struct.RangeType = type { i32, i32 }

@.str.1 = private unnamed_addr constant [13 x i8] c"rangetypes.c\00", align 1
@.str.11 = private unnamed_addr constant [18 x i8] c"date out of range\00", align 1
@__func__.daterange_canonical = private unnamed_addr constant [20 x i8] c"daterange_canonical\00", align 1
@.str.12 = private unnamed_addr constant [28 x i8] c"type %u is not a range type\00", align 1
@__func__.range_get_typcache = private unnamed_addr constant [19 x i8] c"range_get_typcache\00", align 1

; Function Attrs: inlinehint nounwind uwtable
define internal i64 @Int32GetDatum(i32 noundef %0) #2 {
  %2 = alloca i32, align 4
  store i32 %0, ptr %2, align 4
  %3 = load i32, ptr %2, align 4
  %4 = sext i32 %3 to i64
  ret i64 %4
}

; Function Attrs: inlinehint nounwind uwtable
define internal i32 @DatumGetInt32(i64 noundef %0) #2 {
  %2 = alloca i64, align 8
  store i64 %0, ptr %2, align 8
  %3 = load i64, ptr %2, align 8
  %4 = trunc i64 %3 to i32
  ret i32 %4
}

; Function Attrs: inlinehint nounwind uwtable
define internal i64 @PointerGetDatum(ptr noundef %0) #2 {
  %2 = alloca ptr, align 8
  store ptr %0, ptr %2, align 8
  %3 = load ptr, ptr %2, align 8
  %4 = ptrtoint ptr %3 to i64
  ret i64 %4
}

; Function Attrs: inlinehint nounwind uwtable
define internal ptr @DatumGetPointer(i64 noundef %0) #2 {
  %2 = alloca i64, align 8
  store i64 %0, ptr %2, align 8
  %3 = load i64, ptr %2, align 8
  %4 = inttoptr i64 %3 to ptr
  ret ptr %4
}

; Function Attrs: inlinehint nounwind uwtable
define internal i64 @DateADTGetDatum(i32 noundef %0) #2 {
  %2 = alloca i32, align 4
  store i32 %0, ptr %2, align 4
  %3 = load i32, ptr %2, align 4
  %4 = call i64 @Int32GetDatum(i32 noundef %3)
  ret i64 %4
}

; Function Attrs: inlinehint nounwind uwtable
define internal i32 @DatumGetDateADT(i64 noundef %0) #2 {
  %2 = alloca i64, align 8
  store i64 %0, ptr %2, align 8
  %3 = load i64, ptr %2, align 8
  %4 = call i32 @DatumGetInt32(i64 noundef %3)
  ret i32 %4
}

; Function Attrs: inlinehint nounwind uwtable
define internal i64 @RangeTypePGetDatum(ptr noundef %0) #2 {
  %2 = alloca ptr, align 8
  store ptr %0, ptr %2, align 8
  %3 = load ptr, ptr %2, align 8
  %4 = call i64 @PointerGetDatum(ptr noundef %3)
  ret i64 %4
}

; Function Attrs: nounwind uwtable
define dso_local ptr @range_get_typcache(ptr noundef %0, i32 noundef %1) #0 {
  %3 = alloca ptr, align 8
  %4 = alloca i32, align 4
  %5 = alloca ptr, align 8
  store ptr %0, ptr %3, align 8
  store i32 %1, ptr %4, align 4
  call void @llvm.lifetime.start.p0(i64 8, ptr %5) #10
  %6 = load ptr, ptr %3, align 8
  %7 = getelementptr inbounds nuw %struct.FunctionCallInfoBaseData, ptr %6, i32 0, i32 0
  %8 = load ptr, ptr %7, align 8
  %9 = getelementptr inbounds nuw %struct.FmgrInfo, ptr %8, i32 0, i32 6
  %10 = load ptr, ptr %9, align 8
  store ptr %10, ptr %5, align 8
  %11 = load ptr, ptr %5, align 8
  %12 = icmp eq ptr %11, null
  br i1 %12, label %19, label %13

13:                                               ; preds = %2
  %14 = load ptr, ptr %5, align 8
  %15 = getelementptr inbounds nuw %struct.TypeCacheEntry, ptr %14, i32 0, i32 0
  %16 = load i32, ptr %15, align 8
  %17 = load i32, ptr %4, align 4
  %18 = icmp ne i32 %16, %17
  br i1 %18, label %19, label %44

19:                                               ; preds = %13, %2
  %20 = load i32, ptr %4, align 4
  %21 = call ptr @lookup_type_cache(i32 noundef %20, i32 noundef 2048)
  store ptr %21, ptr %5, align 8
  %22 = load ptr, ptr %5, align 8
  %23 = getelementptr inbounds nuw %struct.TypeCacheEntry, ptr %22, i32 0, i32 27
  %24 = load ptr, ptr %23, align 8
  %25 = icmp eq ptr %24, null
  br i1 %25, label %26, label %38

26:                                               ; preds = %19
  br label %27

27:                                               ; preds = %26
  br i1 true, label %28, label %30

28:                                               ; preds = %27
  %29 = call zeroext i1 @errstart_cold(i32 noundef 21, ptr noundef null) #11
  br i1 %29, label %32, label %35

30:                                               ; preds = %27
  %31 = call zeroext i1 @errstart(i32 noundef 21, ptr noundef null)
  br i1 %31, label %32, label %35

32:                                               ; preds = %30, %28
  %33 = load i32, ptr %4, align 4
  %34 = call i32 (ptr, ...) @errmsg_internal(ptr noundef @.str.12, i32 noundef %33)
  call void @errfinish(ptr noundef @.str.1, i32 noundef 1712, ptr noundef @__func__.range_get_typcache)
  br label %35

35:                                               ; preds = %32, %30, %28
  unreachable

36:                                               ; No predecessors!
  br label %37

37:                                               ; preds = %36
  br label %38

38:                                               ; preds = %37, %19
  %39 = load ptr, ptr %5, align 8
  %40 = load ptr, ptr %3, align 8
  %41 = getelementptr inbounds nuw %struct.FunctionCallInfoBaseData, ptr %40, i32 0, i32 0
  %42 = load ptr, ptr %41, align 8
  %43 = getelementptr inbounds nuw %struct.FmgrInfo, ptr %42, i32 0, i32 6
  store ptr %39, ptr %43, align 8
  br label %44

44:                                               ; preds = %38, %13
  %45 = load ptr, ptr %5, align 8
  call void @llvm.lifetime.end.p0(i64 8, ptr %5) #10
  ret ptr %45
}

; Function Attrs: inlinehint nounwind uwtable
define internal ptr @DatumGetRangeTypeP(i64 noundef %0) #2 {
  %2 = alloca i64, align 8
  store i64 %0, ptr %2, align 8
  %3 = load i64, ptr %2, align 8
  %4 = call ptr @DatumGetPointer(i64 noundef %3)
  %5 = call ptr @pg_detoast_datum(ptr noundef %4)
  ret ptr %5
}

; Function Attrs: nounwind uwtable
define dso_local i64 @daterange_canonical(ptr noundef %0) #0 {
  %2 = alloca i64, align 8
  %3 = alloca ptr, align 8
  %4 = alloca ptr, align 8
  %5 = alloca ptr, align 8
  %6 = alloca ptr, align 8
  %7 = alloca %struct.RangeBound, align 8
  %8 = alloca %struct.RangeBound, align 8
  %9 = alloca i8, align 1
  %10 = alloca i32, align 4
  %11 = alloca i32, align 4
  %12 = alloca ptr, align 8
  %13 = alloca i32, align 4
  %14 = alloca ptr, align 8
  store ptr %0, ptr %3, align 8
  call void @llvm.lifetime.start.p0(i64 8, ptr %4) #10
  %15 = load ptr, ptr %3, align 8
  %16 = getelementptr inbounds nuw %struct.FunctionCallInfoBaseData, ptr %15, i32 0, i32 6
  %17 = getelementptr inbounds [0 x %struct.NullableDatum], ptr %16, i64 0, i64 0
  %18 = getelementptr inbounds nuw %struct.NullableDatum, ptr %17, i32 0, i32 0
  %19 = load i64, ptr %18, align 8
  %20 = call ptr @DatumGetRangeTypeP(i64 noundef %19)
  store ptr %20, ptr %4, align 8
  call void @llvm.lifetime.start.p0(i64 8, ptr %5) #10
  %21 = load ptr, ptr %3, align 8
  %22 = getelementptr inbounds nuw %struct.FunctionCallInfoBaseData, ptr %21, i32 0, i32 1
  %23 = load ptr, ptr %22, align 8
  store ptr %23, ptr %5, align 8
  call void @llvm.lifetime.start.p0(i64 8, ptr %6) #10
  call void @llvm.lifetime.start.p0(i64 16, ptr %7) #10
  call void @llvm.lifetime.start.p0(i64 16, ptr %8) #10
  call void @llvm.lifetime.start.p0(i64 1, ptr %9) #10
  %24 = load ptr, ptr %3, align 8
  %25 = load ptr, ptr %4, align 8
  %26 = getelementptr inbounds nuw %struct.RangeType, ptr %25, i32 0, i32 1
  %27 = load i32, ptr %26, align 4
  %28 = call ptr @range_get_typcache(ptr noundef %24, i32 noundef %27)
  store ptr %28, ptr %6, align 8
  %29 = load ptr, ptr %6, align 8
  %30 = load ptr, ptr %4, align 8
  call void @range_deserialize(ptr noundef %29, ptr noundef %30, ptr noundef %7, ptr noundef %8, ptr noundef %9)
  %31 = load i8, ptr %9, align 1, !range !7, !noundef !8
  %32 = trunc i8 %31 to i1
  br i1 %32, label %33, label %36

33:                                               ; preds = %1
  %34 = load ptr, ptr %4, align 8
  %35 = call i64 @RangeTypePGetDatum(ptr noundef %34)
  store i64 %35, ptr %2, align 8
  store i32 1, ptr %10, align 4
  br label %163

36:                                               ; preds = %1
  %37 = getelementptr inbounds nuw %struct.RangeBound, ptr %7, i32 0, i32 1
  %38 = load i8, ptr %37, align 8, !range !7, !noundef !8
  %39 = trunc i8 %38 to i1
  br i1 %39, label %97, label %40

40:                                               ; preds = %36
  %41 = getelementptr inbounds nuw %struct.RangeBound, ptr %7, i32 0, i32 0
  %42 = load i64, ptr %41, align 8
  %43 = call i32 @DatumGetDateADT(i64 noundef %42)
  %44 = icmp eq i32 %43, -2147483648
  br i1 %44, label %97, label %45

45:                                               ; preds = %40
  %46 = getelementptr inbounds nuw %struct.RangeBound, ptr %7, i32 0, i32 0
  %47 = load i64, ptr %46, align 8
  %48 = call i32 @DatumGetDateADT(i64 noundef %47)
  %49 = icmp eq i32 %48, 2147483647
  br i1 %49, label %97, label %50

50:                                               ; preds = %45
  %51 = getelementptr inbounds nuw %struct.RangeBound, ptr %7, i32 0, i32 2
  %52 = load i8, ptr %51, align 1, !range !7, !noundef !8
  %53 = trunc i8 %52 to i1
  br i1 %53, label %97, label %54

54:                                               ; preds = %50
  call void @llvm.lifetime.start.p0(i64 4, ptr %11) #10
  %55 = getelementptr inbounds nuw %struct.RangeBound, ptr %7, i32 0, i32 0
  %56 = load i64, ptr %55, align 8
  %57 = call i32 @DatumGetDateADT(i64 noundef %56)
  store i32 %57, ptr %11, align 4
  %58 = load i32, ptr %11, align 4
  %59 = add i32 %58, 1
  store i32 %59, ptr %11, align 4
  %60 = load i32, ptr %11, align 4
  %61 = icmp sle i32 -2451545, %60
  br i1 %61, label %62, label %65

62:                                               ; preds = %54
  %63 = load i32, ptr %11, align 4
  %64 = icmp slt i32 %63, 2145031949
  br label %65

65:                                               ; preds = %62, %54
  %66 = phi i1 [ false, %54 ], [ %64, %62 ]
  %67 = xor i1 %66, true
  %68 = zext i1 %67 to i32
  %69 = icmp ne i32 %68, 0
  %70 = zext i1 %69 to i32
  %71 = sext i32 %70 to i64
  %72 = call i64 @llvm.expect.i64(i64 %71, i64 0)
  %73 = icmp ne i64 %72, 0
  br i1 %73, label %74, label %89

74:                                               ; preds = %65
  br label %75

75:                                               ; preds = %74
  br label %76

76:                                               ; preds = %75
  call void @llvm.lifetime.start.p0(i64 8, ptr %12) #10
  %77 = load ptr, ptr %5, align 8
  store ptr %77, ptr %12, align 8
  %78 = load ptr, ptr %12, align 8
  %79 = call zeroext i1 @errsave_start(ptr noundef %78, ptr noundef null)
  br i1 %79, label %80, label %84

80:                                               ; preds = %76
  %81 = call i32 @errcode(i32 noundef 134217858)
  %82 = call i32 (ptr, ...) @errmsg(ptr noundef @.str.11)
  %83 = load ptr, ptr %12, align 8
  call void @errsave_finish(ptr noundef %83, ptr noundef @.str.1, i32 noundef 1584, ptr noundef @__func__.daterange_canonical)
  br label %84

84:                                               ; preds = %80, %76
  call void @llvm.lifetime.end.p0(i64 8, ptr %12) #10
  br label %85

85:                                               ; preds = %84
  br label %86

86:                                               ; preds = %85
  store i64 0, ptr %2, align 8
  store i32 1, ptr %10, align 4
  br label %94

87:                                               ; No predecessors!
  br label %88

88:                                               ; preds = %87
  br label %89

89:                                               ; preds = %88, %65
  %90 = load i32, ptr %11, align 4
  %91 = call i64 @DateADTGetDatum(i32 noundef %90)
  %92 = getelementptr inbounds nuw %struct.RangeBound, ptr %7, i32 0, i32 0
  store i64 %91, ptr %92, align 8
  %93 = getelementptr inbounds nuw %struct.RangeBound, ptr %7, i32 0, i32 2
  store i8 1, ptr %93, align 1
  store i32 0, ptr %10, align 4
  br label %94

94:                                               ; preds = %89, %86
  call void @llvm.lifetime.end.p0(i64 4, ptr %11) #10
  %95 = load i32, ptr %10, align 4
  switch i32 %95, label %163 [
    i32 0, label %96
  ]

96:                                               ; preds = %94
  br label %97

97:                                               ; preds = %96, %50, %45, %40, %36
  %98 = getelementptr inbounds nuw %struct.RangeBound, ptr %8, i32 0, i32 1
  %99 = load i8, ptr %98, align 8, !range !7, !noundef !8
  %100 = trunc i8 %99 to i1
  br i1 %100, label %158, label %101

101:                                              ; preds = %97
  %102 = getelementptr inbounds nuw %struct.RangeBound, ptr %8, i32 0, i32 0
  %103 = load i64, ptr %102, align 8
  %104 = call i32 @DatumGetDateADT(i64 noundef %103)
  %105 = icmp eq i32 %104, -2147483648
  br i1 %105, label %158, label %106

106:                                              ; preds = %101
  %107 = getelementptr inbounds nuw %struct.RangeBound, ptr %8, i32 0, i32 0
  %108 = load i64, ptr %107, align 8
  %109 = call i32 @DatumGetDateADT(i64 noundef %108)
  %110 = icmp eq i32 %109, 2147483647
  br i1 %110, label %158, label %111

111:                                              ; preds = %106
  %112 = getelementptr inbounds nuw %struct.RangeBound, ptr %8, i32 0, i32 2
  %113 = load i8, ptr %112, align 1, !range !7, !noundef !8
  %114 = trunc i8 %113 to i1
  br i1 %114, label %115, label %158

115:                                              ; preds = %111
  call void @llvm.lifetime.start.p0(i64 4, ptr %13) #10
  %116 = getelementptr inbounds nuw %struct.RangeBound, ptr %8, i32 0, i32 0
  %117 = load i64, ptr %116, align 8
  %118 = call i32 @DatumGetDateADT(i64 noundef %117)
  store i32 %118, ptr %13, align 4
  %119 = load i32, ptr %13, align 4
  %120 = add i32 %119, 1
  store i32 %120, ptr %13, align 4
  %121 = load i32, ptr %13, align 4
  %122 = icmp sle i32 -2451545, %121
  br i1 %122, label %123, label %126

123:                                              ; preds = %115
  %124 = load i32, ptr %13, align 4
  %125 = icmp slt i32 %124, 2145031949
  br label %126

126:                                              ; preds = %123, %115
  %127 = phi i1 [ false, %115 ], [ %125, %123 ]
  %128 = xor i1 %127, true
  %129 = zext i1 %128 to i32
  %130 = icmp ne i32 %129, 0
  %131 = zext i1 %130 to i32
  %132 = sext i32 %131 to i64
  %133 = call i64 @llvm.expect.i64(i64 %132, i64 0)
  %134 = icmp ne i64 %133, 0
  br i1 %134, label %135, label %150

135:                                              ; preds = %126
  br label %136

136:                                              ; preds = %135
  br label %137

137:                                              ; preds = %136
  call void @llvm.lifetime.start.p0(i64 8, ptr %14) #10
  %138 = load ptr, ptr %5, align 8
  store ptr %138, ptr %14, align 8
  %139 = load ptr, ptr %14, align 8
  %140 = call zeroext i1 @errsave_start(ptr noundef %139, ptr noundef null)
  br i1 %140, label %141, label %145

141:                                              ; preds = %137
  %142 = call i32 @errcode(i32 noundef 134217858)
  %143 = call i32 (ptr, ...) @errmsg(ptr noundef @.str.11)
  %144 = load ptr, ptr %14, align 8
  call void @errsave_finish(ptr noundef %144, ptr noundef @.str.1, i32 noundef 1599, ptr noundef @__func__.daterange_canonical)
  br label %145

145:                                              ; preds = %141, %137
  call void @llvm.lifetime.end.p0(i64 8, ptr %14) #10
  br label %146

146:                                              ; preds = %145
  br label %147

147:                                              ; preds = %146
  store i64 0, ptr %2, align 8
  store i32 1, ptr %10, align 4
  br label %155

148:                                              ; No predecessors!
  br label %149

149:                                              ; preds = %148
  br label %150

150:                                              ; preds = %149, %126
  %151 = load i32, ptr %13, align 4
  %152 = call i64 @DateADTGetDatum(i32 noundef %151)
  %153 = getelementptr inbounds nuw %struct.RangeBound, ptr %8, i32 0, i32 0
  store i64 %152, ptr %153, align 8
  %154 = getelementptr inbounds nuw %struct.RangeBound, ptr %8, i32 0, i32 2
  store i8 0, ptr %154, align 1
  store i32 0, ptr %10, align 4
  br label %155

155:                                              ; preds = %150, %147
  call void @llvm.lifetime.end.p0(i64 4, ptr %13) #10
  %156 = load i32, ptr %10, align 4
  switch i32 %156, label %163 [
    i32 0, label %157
  ]

157:                                              ; preds = %155
  br label %158

158:                                              ; preds = %157, %111, %106, %101, %97
  %159 = load ptr, ptr %6, align 8
  %160 = load ptr, ptr %5, align 8
  %161 = call ptr @range_serialize(ptr noundef %159, ptr noundef %7, ptr noundef %8, i1 noundef zeroext false, ptr noundef %160)
  %162 = call i64 @RangeTypePGetDatum(ptr noundef %161)
  store i64 %162, ptr %2, align 8
  store i32 1, ptr %10, align 4
  br label %163

163:                                              ; preds = %158, %155, %94, %33
  call void @llvm.lifetime.end.p0(i64 1, ptr %9) #10
  call void @llvm.lifetime.end.p0(i64 16, ptr %8) #10
  call void @llvm.lifetime.end.p0(i64 16, ptr %7) #10
  call void @llvm.lifetime.end.p0(i64 8, ptr %6) #10
  call void @llvm.lifetime.end.p0(i64 8, ptr %5) #10
  call void @llvm.lifetime.end.p0(i64 8, ptr %4) #10
  %164 = load i64, ptr %2, align 8
  ret i64 %164
}