; Function Attrs: nounwind uwtable
define dso_local i64 @daterange_canonical(ptr noundef readonly captures(none) %0) local_unnamed_addr #0 {
  %2 = alloca %struct.RangeBound, align 8
  %3 = alloca %struct.RangeBound, align 8
  %4 = alloca i8, align 1
  %5 = getelementptr inbounds nuw i8, ptr %0, i64 32
  %6 = load i64, ptr %5, align 8
  %7 = inttoptr i64 %6 to ptr
  %8 = tail call ptr @pg_detoast_datum(ptr noundef %7) #14
  %9 = getelementptr inbounds nuw i8, ptr %0, i64 8
  %10 = load ptr, ptr %9, align 8
  call void @llvm.lifetime.start.p0(i64 16, ptr nonnull %2) #14
  call void @llvm.lifetime.start.p0(i64 16, ptr nonnull %3) #14
  call void @llvm.lifetime.start.p0(i64 1, ptr nonnull %4) #14
  %11 = getelementptr inbounds nuw i8, ptr %8, i64 4
  %12 = load i32, ptr %11, align 4
  %13 = load ptr, ptr %0, align 8
  %14 = getelementptr inbounds nuw i8, ptr %13, i64 24
  %15 = load ptr, ptr %14, align 8
  %16 = icmp eq ptr %15, null
  br i1 %16, label %19, label %17

17:                                               ; preds = %1
  %18 = load i32, ptr %15, align 8
  %.not.i = icmp eq i32 %18, %12
  br i1 %.not.i, label %range_get_typcache.exit, label %19

19:                                               ; preds = %17, %1
  %20 = tail call ptr @lookup_type_cache(i32 noundef %12, i32 noundef 2048) #14
  %21 = getelementptr inbounds nuw i8, ptr %20, i64 280
  %22 = load ptr, ptr %21, align 8
  %23 = icmp eq ptr %22, null
  br i1 %23, label %24, label %27

24:                                               ; preds = %19
  %25 = tail call zeroext i1 @errstart_cold(i32 noundef 21, ptr noundef null) #16
  tail call void @llvm.assume(i1 %25)
  %26 = tail call i32 (ptr, ...) @errmsg_internal(ptr noundef nonnull @.str.12, i32 noundef %12) #14
  tail call void @errfinish(ptr noundef nonnull @.str.1, i32 noundef 1712, ptr noundef nonnull @__func__.range_get_typcache) #14
  unreachable

27:                                               ; preds = %19
  %28 = load ptr, ptr %0, align 8
  %29 = getelementptr inbounds nuw i8, ptr %28, i64 24
  store ptr %20, ptr %29, align 8
  br label %range_get_typcache.exit

range_get_typcache.exit:                          ; preds = %17, %27
  %.0.i = phi ptr [ %20, %27 ], [ %15, %17 ]
  call void @range_deserialize(ptr noundef nonnull %.0.i, ptr noundef nonnull %8, ptr noundef nonnull %2, ptr noundef nonnull %3, ptr noundef nonnull %4)
  %30 = load i8, ptr %4, align 1, !range !7, !noundef !8
  %31 = trunc nuw i8 %30 to i1
  br i1 %31, label %32, label %34

32:                                               ; preds = %range_get_typcache.exit
  %33 = ptrtoint ptr %8 to i64
  br label %.thread

34:                                               ; preds = %range_get_typcache.exit
  %35 = getelementptr inbounds nuw i8, ptr %2, i64 8
  %36 = load i8, ptr %35, align 8, !range !7, !noundef !8
  %37 = trunc nuw i8 %36 to i1
  br i1 %37, label %56, label %38

38:                                               ; preds = %34
  %39 = load i64, ptr %2, align 8
  %40 = trunc i64 %39 to i32
  %.off = add i32 %40, -2147483647
  %switch = icmp ult i32 %.off, 2
  br i1 %switch, label %56, label %41

41:                                               ; preds = %38
  %42 = getelementptr inbounds nuw i8, ptr %2, i64 9
  %43 = load i8, ptr %42, align 1, !range !7, !noundef !8
  %44 = trunc nuw i8 %43 to i1
  br i1 %44, label %56, label %45

45:                                               ; preds = %41
  %46 = add i32 %40, 2451546
  %47 = icmp ult i32 %46, 2147483494
  br i1 %47, label %53, label %48, !prof !20

48:                                               ; preds = %45
  %49 = tail call zeroext i1 @errsave_start(ptr noundef %10, ptr noundef null) #14
  br i1 %49, label %50, label %.thread

50:                                               ; preds = %48
  %51 = tail call i32 @errcode(i32 noundef 134217858) #14
  %52 = tail call i32 (ptr, ...) @errmsg(ptr noundef nonnull @.str.11) #14
  tail call void @errsave_finish(ptr noundef %10, ptr noundef nonnull @.str.1, i32 noundef 1584, ptr noundef nonnull @__func__.daterange_canonical) #14
  br label %.thread

53:                                               ; preds = %45
  %54 = shl i64 %39, 32
  %sext = add i64 %54, 4294967296
  %55 = ashr exact i64 %sext, 32
  store i64 %55, ptr %2, align 8
  store i8 1, ptr %42, align 1
  br label %56

56:                                               ; preds = %38, %53, %41, %34
  %57 = getelementptr inbounds nuw i8, ptr %3, i64 8
  %58 = load i8, ptr %57, align 8, !range !7, !noundef !8
  %59 = trunc nuw i8 %58 to i1
  br i1 %59, label %78, label %60

60:                                               ; preds = %56
  %61 = load i64, ptr %3, align 8
  %62 = trunc i64 %61 to i32
  %.off30 = add i32 %62, -2147483647
  %switch31 = icmp ult i32 %.off30, 2
  br i1 %switch31, label %78, label %63

63:                                               ; preds = %60
  %64 = getelementptr inbounds nuw i8, ptr %3, i64 9
  %65 = load i8, ptr %64, align 1, !range !7, !noundef !8
  %66 = trunc nuw i8 %65 to i1
  br i1 %66, label %67, label %78

67:                                               ; preds = %63
  %68 = add i32 %62, 2451546
  %69 = icmp ult i32 %68, 2147483494
  br i1 %69, label %75, label %70, !prof !20

70:                                               ; preds = %67
  %71 = tail call zeroext i1 @errsave_start(ptr noundef %10, ptr noundef null) #14
  br i1 %71, label %72, label %.thread

72:                                               ; preds = %70
  %73 = tail call i32 @errcode(i32 noundef 134217858) #14
  %74 = tail call i32 (ptr, ...) @errmsg(ptr noundef nonnull @.str.11) #14
  tail call void @errsave_finish(ptr noundef %10, ptr noundef nonnull @.str.1, i32 noundef 1599, ptr noundef nonnull @__func__.daterange_canonical) #14
  br label %.thread

75:                                               ; preds = %67
  %76 = shl i64 %61, 32
  %sext32 = add i64 %76, 4294967296
  %77 = ashr exact i64 %sext32, 32
  store i64 %77, ptr %3, align 8
  store i8 0, ptr %64, align 1
  br label %78

78:                                               ; preds = %60, %75, %63, %56
  %79 = call ptr @range_serialize(ptr noundef nonnull %.0.i, ptr noundef nonnull %2, ptr noundef nonnull %3, i1 noundef zeroext false, ptr noundef %10)
  %80 = ptrtoint ptr %79 to i64
  br label %.thread

.thread:                                          ; preds = %72, %70, %50, %48, %78, %32
  %.0 = phi i64 [ %33, %32 ], [ %80, %78 ], [ 0, %48 ], [ 0, %50 ], [ 0, %70 ], [ 0, %72 ]
  call void @llvm.lifetime.end.p0(i64 1, ptr nonnull %4) #14
  call void @llvm.lifetime.end.p0(i64 16, ptr nonnull %3) #14
  call void @llvm.lifetime.end.p0(i64 16, ptr nonnull %2) #14
  ret i64 %.0
}